	.file	"sin.c"
	.text
	.globl	test
	.type	test, @function
test:
.LFB0:
	.cfi_startproc
	pushq	%rbp
	.cfi_def_cfa_offset 16
	.cfi_offset 6, -16
	movq	%rsp, %rbp
	.cfi_def_cfa_register 6
	subq	$32, %rsp
	movsd	%xmm0, -24(%rbp)
	movsd	%xmm1, -32(%rbp)
	movsd	-32(%rbp), %xmm0
	mulsd	-32(%rbp), %xmm0
	addsd	-24(%rbp), %xmm0
	call	sin@PLT
	movapd	%xmm0, %xmm1
	movsd	.LC0(%rip), %xmm0
	addsd	%xmm1, %xmm0
	movsd	%xmm0, -8(%rbp)
	movsd	-8(%rbp), %xmm0
	leave
	.cfi_def_cfa 7, 8
	ret
	.cfi_endproc
.LFE0:
	.size	test, .-test
	.globl	main
	.type	main, @function
main:
.LFB1:
	.cfi_startproc
	pushq	%rbp
	.cfi_def_cfa_offset 16
	.cfi_offset 6, -16
	movq	%rsp, %rbp
	.cfi_def_cfa_register 6
	subq	$16, %rsp
	movsd	.LC1(%rip), %xmm0
	movq	.LC0(%rip), %rax
	movapd	%xmm0, %xmm1
	movq	%rax, -8(%rbp)
	movsd	-8(%rbp), %xmm0
	call	test
	movl	$0, %eax
	leave
	.cfi_def_cfa 7, 8
	ret
	.cfi_endproc
.LFE1:
	.size	main, .-main
	.section	.rodata
	.align 8
.LC0:
	.long	0
	.long	1072693248
	.align 8
.LC1:
	.long	0
	.long	1073741824
	.ident	"GCC: (Gentoo 6.4.0-r1 p1.3) 6.4.0"
	.section	.note.GNU-stack,"",@progbits
